; Function Attrs: mustprogress null_pointer_is_valid sspstrong uwtable
define void @_ZN15RtpPlayerDialog17rtpAnalysisRemoveEv(ptr noundef align 8 dereferenceable_or_null(472) %0) unnamed_addr #0 align 2 personality ptr @__gxx_personality_v0 {
  %2 = alloca %class.QList.72, align 8
  %3 = alloca %class.QList.107, align 8
  call void @llvm.lifetime.start.p0(i64 24, ptr nonnull %2) #26
  %4 = getelementptr inbounds nuw i8, ptr %0, i64 144
  %5 = load ptr, ptr %4, align 8
  %6 = getelementptr inbounds nuw i8, ptr %5, i64 320
  %7 = load ptr, ptr %6, align 8
  call void @_ZNK11QTreeWidget13selectedItemsEv(ptr dead_on_unwind nonnull writable sret(%class.QList.72) align 8 %2, ptr noundef align 8 dereferenceable_or_null(40) %7)
  %8 = getelementptr inbounds nuw i8, ptr %2, i64 16
  %9 = load i64, ptr %8, align 8
  %10 = icmp slt i64 %9, 1
  %11 = load ptr, ptr %2, align 8
  %.not.i.i.i = icmp eq ptr %11, null
  br i1 %.not.i.i.i, label %_ZN5QListIP15QTreeWidgetItemED2Ev.exit, label %_ZN17QArrayDataPointerIP15QTreeWidgetItemE5derefEv.exit.i.i

_ZN17QArrayDataPointerIP15QTreeWidgetItemE5derefEv.exit.i.i: ; preds = %1
  %12 = atomicrmw sub ptr %11, i32 1 seq_cst, align 4
  %.not.i.i = icmp eq i32 %12, 1
  br i1 %.not.i.i, label %13, label %_ZN5QListIP15QTreeWidgetItemED2Ev.exit

13:                                               ; preds = %_ZN17QArrayDataPointerIP15QTreeWidgetItemE5derefEv.exit.i.i
  %14 = load ptr, ptr %2, align 8
  call void @_ZN10QArrayData10deallocateEPS_xx(ptr noundef %14, i64 noundef 8, i64 noundef 8) #26
  br label %_ZN5QListIP15QTreeWidgetItemED2Ev.exit

_ZN5QListIP15QTreeWidgetItemED2Ev.exit:           ; preds = %1, %_ZN17QArrayDataPointerIP15QTreeWidgetItemE5derefEv.exit.i.i, %13
  call void @llvm.lifetime.end.p0(i64 24, ptr nonnull %2) #26
  br i1 %10, label %_ZN5QListIP13_rtpstream_idED2Ev.exit, label %15

15:                                               ; preds = %_ZN5QListIP15QTreeWidgetItemED2Ev.exit
  call void @_ZN15RtpPlayerDialog23getSelectedRtpStreamIDsEv(ptr dead_on_unwind nonnull writable sret(%class.QList.107) align 8 %3, ptr noundef align 8 dereferenceable_or_null(472) %0)
  invoke void @_ZN15RtpPlayerDialog33rtpAnalysisDialogRemoveRtpStreamsE5QListIP13_rtpstream_idE(ptr noundef align 8 dereferenceable_or_null(472) %0, ptr noundef nonnull %3)
          to label %16 unwind label %21

16:                                               ; preds = %15
  %17 = load ptr, ptr %3, align 8
  %.not.i.i.i2 = icmp eq ptr %17, null
  br i1 %.not.i.i.i2, label %_ZN5QListIP13_rtpstream_idED2Ev.exit, label %_ZN17QArrayDataPointerIP13_rtpstream_idE5derefEv.exit.i.i

_ZN17QArrayDataPointerIP13_rtpstream_idE5derefEv.exit.i.i: ; preds = %16
  %18 = atomicrmw sub ptr %17, i32 1 seq_cst, align 4
  %.not.i.i3 = icmp eq i32 %18, 1
  br i1 %.not.i.i3, label %19, label %_ZN5QListIP13_rtpstream_idED2Ev.exit

19:                                               ; preds = %_ZN17QArrayDataPointerIP13_rtpstream_idE5derefEv.exit.i.i
  %20 = load ptr, ptr %3, align 8
  call void @_ZN10QArrayData10deallocateEPS_xx(ptr noundef %20, i64 noundef 8, i64 noundef 8) #26
  br label %_ZN5QListIP13_rtpstream_idED2Ev.exit

_ZN5QListIP13_rtpstream_idED2Ev.exit:             ; preds = %19, %_ZN17QArrayDataPointerIP13_rtpstream_idE5derefEv.exit.i.i, %16, %_ZN5QListIP15QTreeWidgetItemED2Ev.exit
  ret void

21:                                               ; preds = %15
  %22 = landingpad { ptr, i32 }
          cleanup
  %23 = load ptr, ptr %3, align 8
  %.not.i.i.i4 = icmp eq ptr %23, null
  br i1 %.not.i.i.i4, label %_ZN5QListIP13_rtpstream_idED2Ev.exit7, label %_ZN17QArrayDataPointerIP13_rtpstream_idE5derefEv.exit.i.i5

_ZN17QArrayDataPointerIP13_rtpstream_idE5derefEv.exit.i.i5: ; preds = %21
  %24 = atomicrmw sub ptr %23, i32 1 seq_cst, align 4
  %.not.i.i6 = icmp eq i32 %24, 1
  br i1 %.not.i.i6, label %25, label %_ZN5QListIP13_rtpstream_idED2Ev.exit7

25:                                               ; preds = %_ZN17QArrayDataPointerIP13_rtpstream_idE5derefEv.exit.i.i5
  %26 = load ptr, ptr %3, align 8
  call void @_ZN10QArrayData10deallocateEPS_xx(ptr noundef %26, i64 noundef 8, i64 noundef 8) #26
  br label %_ZN5QListIP13_rtpstream_idED2Ev.exit7

_ZN5QListIP13_rtpstream_idED2Ev.exit7:            ; preds = %21, %_ZN17QArrayDataPointerIP13_rtpstream_idE5derefEv.exit.i.i5, %25
  resume { ptr, i32 } %22
}